; Function Attrs: mustprogress uwtable
define dso_local void @_ZN4Luau17autocompletePropsB5cxx11ERKNS_6ModuleEPNS_9TypeArenaENS_7NotNullINS_12BuiltinTypesEEEPKNS_4TypeENS_13PropIndexTypeERKSt6vectorIPNS_7AstNodeESaISE_EE(ptr dead_on_unwind noalias nonnull writable sret(%"class.std::unordered_map") align 8 %0, ptr noundef nonnull align 8 dereferenceable(952) %1, ptr noundef %2, ptr %3, ptr noundef %4, i32 noundef %5, ptr noundef nonnull align 8 dereferenceable(24) %6) local_unnamed_addr #5 personality ptr @__gxx_personality_v0 {
  %8 = getelementptr inbounds i8, ptr %0, i64 48
  store ptr %8, ptr %0, align 8
  %9 = getelementptr inbounds i8, ptr %0, i64 8
  store i64 1, ptr %9, align 8
  %10 = getelementptr inbounds i8, ptr %0, i64 16
  %11 = getelementptr inbounds i8, ptr %0, i64 32
  tail call void @llvm.memset.p0.i64(ptr noundef nonnull align 8 dereferenceable(16) %10, i8 0, i64 16, i1 false)
  store float 1.000000e+00, ptr %11, align 8
  %12 = getelementptr inbounds i8, ptr %0, i64 40
  tail call void @llvm.memset.p0.i64(ptr noundef nonnull align 8 dereferenceable(16) %12, i8 0, i64 16, i1 false)
  invoke fastcc void @_ZN4LuauL17autocompletePropsERKNS_6ModuleEPNS_9TypeArenaENS_7NotNullINS_12BuiltinTypesEEEPKNS_4TypeENS_13PropIndexTypeERKSt6vectorIPNS_7AstNodeESaISE_EERSt13unordered_mapINSt7__cxx1112basic_stringIcSt11char_traitsIcESaIcEEENS_17AutocompleteEntryESt4hashISP_ESt8equal_toISP_ESaISt4pairIKSP_SQ_EEE(ptr noundef nonnull align 8 dereferenceable(952) %1, ptr noundef %2, ptr %3, ptr noundef %4, i32 noundef %5, ptr noundef nonnull align 8 dereferenceable(24) %6, ptr noundef nonnull align 8 dereferenceable(56) %0)
          to label %15 unwind label %13

13:                                               ; preds = %7
  %14 = landingpad { ptr, i32 }
          cleanup
  tail call void @_ZNSt13unordered_mapINSt7__cxx1112basic_stringIcSt11char_traitsIcESaIcEEEN4Luau17AutocompleteEntryESt4hashIS5_ESt8equal_toIS5_ESaISt4pairIKS5_S7_EEED2Ev(ptr noundef nonnull align 8 dereferenceable(56) %0) #22
  resume { ptr, i32 } %14

15:                                               ; preds = %7
  ret void
}